target datalayout = "e-m:e-p270:32:32-p271:32:32-p272:64:64-i64:64-i128:128-f80:128-n8:16:32:64-S128"
target triple = "x86_64-pc-linux-gnu"

%class.C2Access = type <{ ptr, i64, i8, [7 x i8], ptr, ptr, ptr, i8, [7 x i8] }>

; Function Attrs: mustprogress nounwind uwtable
define linkonce_odr hidden void @_ZN8C2Access16set_barrier_dataEh(ptr noundef nonnull align 8 dereferenceable(49) %0, i8 noundef zeroext %1) #1 comdat align 2 {
  %3 = alloca ptr, align 8
  %4 = alloca i8, align 1
  store ptr %0, ptr %3, align 8
  store i8 %1, ptr %4, align 1
  %5 = load ptr, ptr %3, align 8
  %6 = load i8, ptr %4, align 1
  %7 = getelementptr inbounds %class.C2Access, ptr %5, i32 0, i32 7
  store i8 %6, ptr %7, align 8
  ret void
}

; Function Attrs: mustprogress nounwind uwtable
define linkonce_odr hidden noundef zeroext i8 @_ZNK8C2Access4typeEv(ptr noundef nonnull align 8 dereferenceable(49) %0) #1 comdat align 2 {
  %2 = alloca ptr, align 8
  store ptr %0, ptr %2, align 8
  %3 = load ptr, ptr %2, align 8
  %4 = getelementptr inbounds %class.C2Access, ptr %3, i32 0, i32 2
  %5 = load i8, ptr %4, align 8
  ret i8 %5
}

; Function Attrs: mustprogress nounwind uwtable
define linkonce_odr hidden noundef i64 @_ZNK8C2Access10decoratorsEv(ptr noundef nonnull align 8 dereferenceable(49) %0) #1 comdat align 2 {
  %2 = alloca ptr, align 8
  store ptr %0, ptr %2, align 8
  %3 = load ptr, ptr %2, align 8
  %4 = getelementptr inbounds %class.C2Access, ptr %3, i32 0, i32 1
  %5 = load i64, ptr %4, align 8
  ret i64 %5
}

; Function Attrs: mustprogress nounwind uwtable
define internal void @_ZL16set_barrier_dataR8C2Access(ptr noundef nonnull align 8 dereferenceable(49) %0) #1 {
  %2 = alloca ptr, align 8
  %3 = alloca i8, align 1
  store ptr %0, ptr %2, align 8
  %4 = load ptr, ptr %2, align 8
  %5 = call noundef i64 @_ZNK8C2Access10decoratorsEv(ptr noundef nonnull align 8 dereferenceable(49) %4)
  %6 = load ptr, ptr %2, align 8
  %7 = call noundef zeroext i8 @_ZNK8C2Access4typeEv(ptr noundef nonnull align 8 dereferenceable(49) %6)
  %8 = call noundef zeroext i1 @_ZN11ZBarrierSet14barrier_neededEm9BasicType(i64 noundef %5, i8 noundef zeroext %7)
  br i1 %8, label %10, label %9

9:                                                ; preds = %1
  br label %66

10:                                               ; preds = %1
  %11 = load ptr, ptr %2, align 8
  %12 = call noundef i64 @_ZNK8C2Access10decoratorsEv(ptr noundef nonnull align 8 dereferenceable(49) %11)
  %13 = and i64 %12, 549755813888
  %14 = icmp ne i64 %13, 0
  br i1 %14, label %15, label %17

15:                                               ; preds = %10
  %16 = load ptr, ptr %2, align 8
  call void @_ZN8C2Access16set_barrier_dataEh(ptr noundef nonnull align 8 dereferenceable(49) %16, i8 noundef zeroext 32)
  br label %66

17:                                               ; preds = %10
  store i8 0, ptr %3, align 1
  %18 = load ptr, ptr %2, align 8
  %19 = call noundef i64 @_ZNK8C2Access10decoratorsEv(ptr noundef nonnull align 8 dereferenceable(49) %18)
  %20 = and i64 %19, 65536
  %21 = icmp ne i64 %20, 0
  br i1 %21, label %22, label %27

22:                                               ; preds = %17
  %23 = load i8, ptr %3, align 1
  %24 = zext i8 %23 to i32
  %25 = or i32 %24, 4
  %26 = trunc i32 %25 to i8
  store i8 %26, ptr %3, align 1
  br label %43

27:                                               ; preds = %17
  %28 = load ptr, ptr %2, align 8
  %29 = call noundef i64 @_ZNK8C2Access10decoratorsEv(ptr noundef nonnull align 8 dereferenceable(49) %28)
  %30 = and i64 %29, 32768
  %31 = icmp ne i64 %30, 0
  br i1 %31, label %32, label %37

32:                                               ; preds = %27
  %33 = load i8, ptr %3, align 1
  %34 = zext i8 %33 to i32
  %35 = or i32 %34, 2
  %36 = trunc i32 %35 to i8
  store i8 %36, ptr %3, align 1
  br label %42

37:                                               ; preds = %27
  %38 = load i8, ptr %3, align 1
  %39 = zext i8 %38 to i32
  %40 = or i32 %39, 1
  %41 = trunc i32 %40 to i8
  store i8 %41, ptr %3, align 1
  br label %42

42:                                               ; preds = %37, %32
  br label %43

43:                                               ; preds = %42, %22
  %44 = load ptr, ptr %2, align 8
  %45 = call noundef i64 @_ZNK8C2Access10decoratorsEv(ptr noundef nonnull align 8 dereferenceable(49) %44)
  %46 = and i64 %45, 524288
  %47 = icmp ne i64 %46, 0
  br i1 %47, label %48, label %53

48:                                               ; preds = %43
  %49 = load i8, ptr %3, align 1
  %50 = zext i8 %49 to i32
  %51 = or i32 %50, 16
  %52 = trunc i32 %51 to i8
  store i8 %52, ptr %3, align 1
  br label %53

53:                                               ; preds = %48, %43
  %54 = load ptr, ptr %2, align 8
  %55 = call noundef i64 @_ZNK8C2Access10decoratorsEv(ptr noundef nonnull align 8 dereferenceable(49) %54)
  %56 = and i64 %55, 4096
  %57 = icmp ne i64 %56, 0
  br i1 %57, label %58, label %63

58:                                               ; preds = %53
  %59 = load i8, ptr %3, align 1
  %60 = zext i8 %59 to i32
  %61 = or i32 %60, 8
  %62 = trunc i32 %61 to i8
  store i8 %62, ptr %3, align 1
  br label %63

63:                                               ; preds = %58, %53
  %64 = load ptr, ptr %2, align 8
  %65 = load i8, ptr %3, align 1
  call void @_ZN8C2Access16set_barrier_dataEh(ptr noundef nonnull align 8 dereferenceable(49) %64, i8 noundef zeroext %65)
  br label %66

66:                                               ; preds = %63, %15, %9
  ret void
}

; Function Attrs: mustprogress nounwind uwtable
define hidden noundef ptr @_ZNK13ZBarrierSetC231atomic_cmpxchg_bool_at_resolvedER19C2AtomicParseAccessP4NodeS3_PK4Type(ptr noundef nonnull align 8 dereferenceable(8) %0, ptr noundef nonnull align 8 dereferenceable(76) %1, ptr noundef %2, ptr noundef %3, ptr noundef %4) unnamed_addr #1 align 2 {
  %6 = alloca ptr, align 8
  %7 = alloca ptr, align 8
  %8 = alloca ptr, align 8
  %9 = alloca ptr, align 8
  %10 = alloca ptr, align 8
  store ptr %0, ptr %6, align 8
  store ptr %1, ptr %7, align 8
  store ptr %2, ptr %8, align 8
  store ptr %3, ptr %9, align 8
  store ptr %4, ptr %10, align 8
  %11 = load ptr, ptr %6, align 8
  %12 = load ptr, ptr %7, align 8
  call void @_ZL16set_barrier_dataR8C2Access(ptr noundef nonnull align 8 dereferenceable(49) %12)
  %13 = load ptr, ptr %7, align 8
  %14 = load ptr, ptr %8, align 8
  %15 = load ptr, ptr %9, align 8
  %16 = load ptr, ptr %10, align 8
  %17 = call noundef ptr @_ZNK12BarrierSetC231atomic_cmpxchg_bool_at_resolvedER19C2AtomicParseAccessP4NodeS3_PK4Type(ptr noundef nonnull align 8 dereferenceable(8) %11, ptr noundef nonnull align 8 dereferenceable(76) %13, ptr noundef %14, ptr noundef %15, ptr noundef %16)
  ret ptr %17
}