; Function Attrs: mustprogress nounwind uwtable
define hidden noundef ptr @_ZNK13ZBarrierSetC231atomic_cmpxchg_bool_at_resolvedER19C2AtomicParseAccessP4NodeS3_PK4Type(ptr noundef nonnull align 8 dereferenceable(8) %0, ptr noundef nonnull align 8 dereferenceable(76) %1, ptr noundef %2, ptr noundef %3, ptr noundef %4) unnamed_addr #0 align 2 {
  %6 = getelementptr inbounds i8, ptr %1, i64 8
  %7 = load i64, ptr %6, align 8
  %8 = getelementptr inbounds i8, ptr %1, i64 16
  %9 = load i8, ptr %8, align 8
  %10 = tail call noundef zeroext i1 @_ZN11ZBarrierSet14barrier_neededEm9BasicType(i64 noundef %7, i8 noundef zeroext %9) #14
  br i1 %10, label %11, label %_ZL16set_barrier_dataR8C2Access.exit

11:                                               ; preds = %5
  %12 = load i64, ptr %6, align 8
  %13 = and i64 %12, 549755813888
  %.not.i = icmp eq i64 %13, 0
  br i1 %.not.i, label %14, label %.sink.split.i

14:                                               ; preds = %11
  %15 = and i64 %12, 65536
  %.not14.i = icmp eq i64 %15, 0
  %16 = and i64 %12, 32768
  %.not15.i = icmp eq i64 %16, 0
  %..i = select i1 %.not15.i, i8 1, i8 2
  %.0.i = select i1 %.not14.i, i8 %..i, i8 4
  %17 = lshr i64 %12, 15
  %18 = trunc i64 %17 to i8
  %19 = and i8 %18, 16
  %20 = lshr i64 %12, 9
  %21 = trunc i64 %20 to i8
  %22 = and i8 %21, 8
  %spec.select.i = or disjoint i8 %22, %19
  %.2.i = or disjoint i8 %spec.select.i, %.0.i
  br label %.sink.split.i

.sink.split.i:                                    ; preds = %14, %11
  %.2.sink.i = phi i8 [ %.2.i, %14 ], [ 32, %11 ]
  %23 = getelementptr inbounds i8, ptr %1, i64 48
  store i8 %.2.sink.i, ptr %23, align 8
  br label %_ZL16set_barrier_dataR8C2Access.exit

_ZL16set_barrier_dataR8C2Access.exit:             ; preds = %5, %.sink.split.i
  %24 = tail call noundef ptr @_ZNK12BarrierSetC231atomic_cmpxchg_bool_at_resolvedER19C2AtomicParseAccessP4NodeS3_PK4Type(ptr noundef nonnull align 8 dereferenceable(8) %0, ptr noundef nonnull align 8 dereferenceable(76) %1, ptr noundef %2, ptr noundef %3, ptr noundef %4) #14
  ret ptr %24
}